target datalayout = "e-m:e-p270:32:32-p271:32:32-p272:64:64-i64:64-i128:128-f80:128-n8:16:32:64-S128"
target triple = "x86_64-pc-linux-gnu"

%"struct.OpenImageIO::v3_1_0::TypeDesc" = type { i8, i8, i8, i8, i32 }

; Function Attrs: mustprogress nounwind uwtable
define noundef zeroext i1 @_ZNK11OpenImageIO6v3_1_08TypeDescltERKS1_(ptr noundef nonnull align 4 dereferenceable(8) %0, ptr noundef nonnull align 4 dereferenceable(8) %1) #7 align 2 {
  %3 = alloca i1, align 1
  %4 = alloca ptr, align 8
  %5 = alloca ptr, align 8
  store ptr %0, ptr %4, align 8, !tbaa !8
  store ptr %1, ptr %5, align 8, !tbaa !8
  %6 = load ptr, ptr %4, align 8
  %7 = getelementptr inbounds nuw %"struct.OpenImageIO::v3_1_0::TypeDesc", ptr %6, i32 0, i32 0
  %8 = load i8, ptr %7, align 4, !tbaa !12
  %9 = zext i8 %8 to i32
  %10 = load ptr, ptr %5, align 8, !tbaa !8
  %11 = getelementptr inbounds nuw %"struct.OpenImageIO::v3_1_0::TypeDesc", ptr %10, i32 0, i32 0
  %12 = load i8, ptr %11, align 4, !tbaa !12
  %13 = zext i8 %12 to i32
  %14 = icmp ne i32 %9, %13
  br i1 %14, label %15, label %24

15:                                               ; preds = %2
  %16 = getelementptr inbounds nuw %"struct.OpenImageIO::v3_1_0::TypeDesc", ptr %6, i32 0, i32 0
  %17 = load i8, ptr %16, align 4, !tbaa !12
  %18 = zext i8 %17 to i32
  %19 = load ptr, ptr %5, align 8, !tbaa !8
  %20 = getelementptr inbounds nuw %"struct.OpenImageIO::v3_1_0::TypeDesc", ptr %19, i32 0, i32 0
  %21 = load i8, ptr %20, align 4, !tbaa !12
  %22 = zext i8 %21 to i32
  %23 = icmp slt i32 %18, %22
  store i1 %23, ptr %3, align 1
  br label %75

24:                                               ; preds = %2
  %25 = getelementptr inbounds nuw %"struct.OpenImageIO::v3_1_0::TypeDesc", ptr %6, i32 0, i32 1
  %26 = load i8, ptr %25, align 1, !tbaa !15
  %27 = zext i8 %26 to i32
  %28 = load ptr, ptr %5, align 8, !tbaa !8
  %29 = getelementptr inbounds nuw %"struct.OpenImageIO::v3_1_0::TypeDesc", ptr %28, i32 0, i32 1
  %30 = load i8, ptr %29, align 1, !tbaa !15
  %31 = zext i8 %30 to i32
  %32 = icmp ne i32 %27, %31
  br i1 %32, label %33, label %42

33:                                               ; preds = %24
  %34 = getelementptr inbounds nuw %"struct.OpenImageIO::v3_1_0::TypeDesc", ptr %6, i32 0, i32 1
  %35 = load i8, ptr %34, align 1, !tbaa !15
  %36 = zext i8 %35 to i32
  %37 = load ptr, ptr %5, align 8, !tbaa !8
  %38 = getelementptr inbounds nuw %"struct.OpenImageIO::v3_1_0::TypeDesc", ptr %37, i32 0, i32 1
  %39 = load i8, ptr %38, align 1, !tbaa !15
  %40 = zext i8 %39 to i32
  %41 = icmp slt i32 %36, %40
  store i1 %41, ptr %3, align 1
  br label %75

42:                                               ; preds = %24
  %43 = getelementptr inbounds nuw %"struct.OpenImageIO::v3_1_0::TypeDesc", ptr %6, i32 0, i32 4
  %44 = load i32, ptr %43, align 4, !tbaa !18
  %45 = load ptr, ptr %5, align 8, !tbaa !8
  %46 = getelementptr inbounds nuw %"struct.OpenImageIO::v3_1_0::TypeDesc", ptr %45, i32 0, i32 4
  %47 = load i32, ptr %46, align 4, !tbaa !18
  %48 = icmp ne i32 %44, %47
  br i1 %48, label %49, label %56

49:                                               ; preds = %42
  %50 = getelementptr inbounds nuw %"struct.OpenImageIO::v3_1_0::TypeDesc", ptr %6, i32 0, i32 4
  %51 = load i32, ptr %50, align 4, !tbaa !18
  %52 = load ptr, ptr %5, align 8, !tbaa !8
  %53 = getelementptr inbounds nuw %"struct.OpenImageIO::v3_1_0::TypeDesc", ptr %52, i32 0, i32 4
  %54 = load i32, ptr %53, align 4, !tbaa !18
  %55 = icmp slt i32 %51, %54
  store i1 %55, ptr %3, align 1
  br label %75

56:                                               ; preds = %42
  %57 = getelementptr inbounds nuw %"struct.OpenImageIO::v3_1_0::TypeDesc", ptr %6, i32 0, i32 2
  %58 = load i8, ptr %57, align 2, !tbaa !16
  %59 = zext i8 %58 to i32
  %60 = load ptr, ptr %5, align 8, !tbaa !8
  %61 = getelementptr inbounds nuw %"struct.OpenImageIO::v3_1_0::TypeDesc", ptr %60, i32 0, i32 2
  %62 = load i8, ptr %61, align 2, !tbaa !16
  %63 = zext i8 %62 to i32
  %64 = icmp ne i32 %59, %63
  br i1 %64, label %65, label %74

65:                                               ; preds = %56
  %66 = getelementptr inbounds nuw %"struct.OpenImageIO::v3_1_0::TypeDesc", ptr %6, i32 0, i32 2
  %67 = load i8, ptr %66, align 2, !tbaa !16
  %68 = zext i8 %67 to i32
  %69 = load ptr, ptr %5, align 8, !tbaa !8
  %70 = getelementptr inbounds nuw %"struct.OpenImageIO::v3_1_0::TypeDesc", ptr %69, i32 0, i32 2
  %71 = load i8, ptr %70, align 2, !tbaa !16
  %72 = zext i8 %71 to i32
  %73 = icmp slt i32 %68, %72
  store i1 %73, ptr %3, align 1
  br label %75

74:                                               ; preds = %56
  store i1 false, ptr %3, align 1
  br label %75

75:                                               ; preds = %74, %65, %49, %33, %15
  %76 = load i1, ptr %3, align 1
  ret i1 %76
}