; Function Attrs: mustprogress nofree norecurse nosync nounwind willreturn memory(argmem: read) uwtable
define noundef zeroext i1 @_ZNK11OpenImageIO6v3_1_08TypeDescltERKS1_(ptr noundef nonnull readonly align 4 captures(none) dereferenceable(8) %0, ptr noundef nonnull readonly align 4 captures(none) dereferenceable(8) %1) local_unnamed_addr #6 align 2 {
  %3 = load i8, ptr %0, align 4, !tbaa !3
  %4 = load i8, ptr %1, align 4, !tbaa !3
  %.not = icmp eq i8 %3, %4
  br i1 %.not, label %7, label %5

5:                                                ; preds = %2
  %6 = icmp ult i8 %3, %4
  br label %27

7:                                                ; preds = %2
  %8 = getelementptr inbounds nuw i8, ptr %0, i64 1
  %9 = load i8, ptr %8, align 1, !tbaa !8
  %10 = getelementptr inbounds nuw i8, ptr %1, i64 1
  %11 = load i8, ptr %10, align 1, !tbaa !8
  %.not18 = icmp eq i8 %9, %11
  br i1 %.not18, label %14, label %12

12:                                               ; preds = %7
  %13 = icmp ult i8 %9, %11
  br label %27

14:                                               ; preds = %7
  %15 = getelementptr inbounds nuw i8, ptr %0, i64 4
  %16 = load i32, ptr %15, align 4, !tbaa !11
  %17 = getelementptr inbounds nuw i8, ptr %1, i64 4
  %18 = load i32, ptr %17, align 4, !tbaa !11
  %.not19 = icmp eq i32 %16, %18
  br i1 %.not19, label %21, label %19

19:                                               ; preds = %14
  %20 = icmp slt i32 %16, %18
  br label %27

21:                                               ; preds = %14
  %22 = getelementptr inbounds nuw i8, ptr %0, i64 2
  %23 = load i8, ptr %22, align 2, !tbaa !9
  %24 = getelementptr inbounds nuw i8, ptr %1, i64 2
  %25 = load i8, ptr %24, align 2, !tbaa !9
  %26 = icmp ult i8 %23, %25
  br label %27

27:                                               ; preds = %21, %19, %12, %5
  %.0 = phi i1 [ %6, %5 ], [ %13, %12 ], [ %20, %19 ], [ %26, %21 ]
  ret i1 %.0
}